target datalayout = "e-m:e-p270:32:32-p271:32:32-p272:64:64-i64:64-i128:128-f80:128-n8:16:32:64-S128"
target triple = "x86_64-pc-linux-gnu"

%struct.anon = type { double, double, i8 }

; Function Attrs: alwaysinline nounwind uwtable
define internal double @ff_exp10(double noundef %0) #3 {
  %2 = alloca double, align 8
  store double %0, ptr %2, align 8, !tbaa !13
  %3 = load double, ptr %2, align 8, !tbaa !13
  %4 = fmul nsz double 0x400A934F0979A371, %3
  %5 = call nsz double @llvm.exp2.f64(double %4)
  ret double %5
}

; Function Attrs: nounwind uwtable
define double @av_strtod(ptr noundef %0, ptr noundef %1) #0 {
  %3 = alloca ptr, align 8
  %4 = alloca ptr, align 8
  %5 = alloca double, align 8
  %6 = alloca ptr, align 8
  %7 = alloca i32, align 4
  store ptr %0, ptr %3, align 8, !tbaa !4
  store ptr %1, ptr %4, align 8, !tbaa !9
  call void @llvm.lifetime.start.p0(i64 8, ptr %5) #12
  call void @llvm.lifetime.start.p0(i64 8, ptr %6) #12
  %8 = load ptr, ptr %3, align 8, !tbaa !4
  %9 = getelementptr inbounds i8, ptr %8, i64 0
  %10 = load i8, ptr %9, align 1, !tbaa !12
  %11 = sext i8 %10 to i32
  %12 = icmp eq i32 %11, 48
  br i1 %12, label %13, label %24

13:                                               ; preds = %2
  %14 = load ptr, ptr %3, align 8, !tbaa !4
  %15 = getelementptr inbounds i8, ptr %14, i64 1
  %16 = load i8, ptr %15, align 1, !tbaa !12
  %17 = sext i8 %16 to i32
  %18 = or i32 %17, 32
  %19 = icmp eq i32 %18, 120
  br i1 %19, label %20, label %24

20:                                               ; preds = %13
  %21 = load ptr, ptr %3, align 8, !tbaa !4
  %22 = call i64 @strtoul(ptr noundef %21, ptr noundef %6, i32 noundef 16) #12
  %23 = uitofp i64 %22 to double
  store double %23, ptr %5, align 8, !tbaa !13
  br label %27

24:                                               ; preds = %13, %2
  %25 = load ptr, ptr %3, align 8, !tbaa !4
  %26 = call nsz double @strtod(ptr noundef %25, ptr noundef %6) #12
  store double %26, ptr %5, align 8, !tbaa !13
  br label %27

27:                                               ; preds = %24, %20
  %28 = load ptr, ptr %6, align 8, !tbaa !4
  %29 = load ptr, ptr %3, align 8, !tbaa !4
  %30 = icmp ne ptr %28, %29
  br i1 %30, label %31, label %117

31:                                               ; preds = %27
  %32 = load ptr, ptr %6, align 8, !tbaa !4
  %33 = getelementptr inbounds i8, ptr %32, i64 0
  %34 = load i8, ptr %33, align 1, !tbaa !12
  %35 = sext i8 %34 to i32
  %36 = icmp eq i32 %35, 100
  br i1 %36, label %37, label %49

37:                                               ; preds = %31
  %38 = load ptr, ptr %6, align 8, !tbaa !4
  %39 = getelementptr inbounds i8, ptr %38, i64 1
  %40 = load i8, ptr %39, align 1, !tbaa !12
  %41 = sext i8 %40 to i32
  %42 = icmp eq i32 %41, 66
  br i1 %42, label %43, label %49

43:                                               ; preds = %37
  %44 = load double, ptr %5, align 8, !tbaa !13
  %45 = fdiv nsz double %44, 2.000000e+01
  %46 = call nsz double @ff_exp10(double noundef %45)
  store double %46, ptr %5, align 8, !tbaa !13
  %47 = load ptr, ptr %6, align 8, !tbaa !4
  %48 = getelementptr inbounds i8, ptr %47, i64 2
  store ptr %48, ptr %6, align 8, !tbaa !4
  br label %106

49:                                               ; preds = %37, %31
  %50 = load ptr, ptr %6, align 8, !tbaa !4
  %51 = load i8, ptr %50, align 1, !tbaa !12
  %52 = sext i8 %51 to i32
  %53 = icmp sge i32 %52, 69
  br i1 %53, label %54, label %105

54:                                               ; preds = %49
  %55 = load ptr, ptr %6, align 8, !tbaa !4
  %56 = load i8, ptr %55, align 1, !tbaa !12
  %57 = sext i8 %56 to i32
  %58 = icmp sle i32 %57, 122
  br i1 %58, label %59, label %105

59:                                               ; preds = %54
  call void @llvm.lifetime.start.p0(i64 4, ptr %7) #12
  %60 = load ptr, ptr %6, align 8, !tbaa !4
  %61 = load i8, ptr %60, align 1, !tbaa !12
  %62 = sext i8 %61 to i32
  %63 = sub nsw i32 %62, 69
  %64 = sext i32 %63 to i64
  %65 = getelementptr inbounds [54 x %struct.anon], ptr @si_prefixes, i64 0, i64 %64
  %66 = getelementptr inbounds nuw %struct.anon, ptr %65, i32 0, i32 2
  %67 = load i8, ptr %66, align 8, !tbaa !15
  %68 = sext i8 %67 to i32
  store i32 %68, ptr %7, align 4, !tbaa !17
  %69 = load i32, ptr %7, align 4, !tbaa !17
  %70 = icmp ne i32 %69, 0
  br i1 %70, label %71, label %104

71:                                               ; preds = %59
  %72 = load ptr, ptr %6, align 8, !tbaa !4
  %73 = getelementptr inbounds i8, ptr %72, i64 1
  %74 = load i8, ptr %73, align 1, !tbaa !12
  %75 = sext i8 %74 to i32
  %76 = icmp eq i32 %75, 105
  br i1 %76, label %77, label %90

77:                                               ; preds = %71
  %78 = load ptr, ptr %6, align 8, !tbaa !4
  %79 = load i8, ptr %78, align 1, !tbaa !12
  %80 = sext i8 %79 to i32
  %81 = sub nsw i32 %80, 69
  %82 = sext i32 %81 to i64
  %83 = getelementptr inbounds [54 x %struct.anon], ptr @si_prefixes, i64 0, i64 %82
  %84 = getelementptr inbounds nuw %struct.anon, ptr %83, i32 0, i32 0
  %85 = load double, ptr %84, align 8, !tbaa !19
  %86 = load double, ptr %5, align 8, !tbaa !13
  %87 = fmul nsz double %86, %85
  store double %87, ptr %5, align 8, !tbaa !13
  %88 = load ptr, ptr %6, align 8, !tbaa !4
  %89 = getelementptr inbounds i8, ptr %88, i64 2
  store ptr %89, ptr %6, align 8, !tbaa !4
  br label %103

90:                                               ; preds = %71
  %91 = load ptr, ptr %6, align 8, !tbaa !4
  %92 = load i8, ptr %91, align 1, !tbaa !12
  %93 = sext i8 %92 to i32
  %94 = sub nsw i32 %93, 69
  %95 = sext i32 %94 to i64
  %96 = getelementptr inbounds [54 x %struct.anon], ptr @si_prefixes, i64 0, i64 %95
  %97 = getelementptr inbounds nuw %struct.anon, ptr %96, i32 0, i32 1
  %98 = load double, ptr %97, align 8, !tbaa !20
  %99 = load double, ptr %5, align 8, !tbaa !13
  %100 = fmul nsz double %99, %98
  store double %100, ptr %5, align 8, !tbaa !13
  %101 = load ptr, ptr %6, align 8, !tbaa !4
  %102 = getelementptr inbounds nuw i8, ptr %101, i32 1
  store ptr %102, ptr %6, align 8, !tbaa !4
  br label %103

103:                                              ; preds = %90, %77
  br label %104

104:                                              ; preds = %103, %59
  call void @llvm.lifetime.end.p0(i64 4, ptr %7) #12
  br label %105

105:                                              ; preds = %104, %54, %49
  br label %106

106:                                              ; preds = %105, %43
  %107 = load ptr, ptr %6, align 8, !tbaa !4
  %108 = load i8, ptr %107, align 1, !tbaa !12
  %109 = sext i8 %108 to i32
  %110 = icmp eq i32 %109, 66
  br i1 %110, label %111, label %116

111:                                              ; preds = %106
  %112 = load double, ptr %5, align 8, !tbaa !13
  %113 = fmul nsz double %112, 8.000000e+00
  store double %113, ptr %5, align 8, !tbaa !13
  %114 = load ptr, ptr %6, align 8, !tbaa !4
  %115 = getelementptr inbounds nuw i8, ptr %114, i32 1
  store ptr %115, ptr %6, align 8, !tbaa !4
  br label %116

116:                                              ; preds = %111, %106
  br label %117

117:                                              ; preds = %116, %27
  %118 = load ptr, ptr %4, align 8, !tbaa !9
  %119 = icmp ne ptr %118, null
  br i1 %119, label %120, label %123

120:                                              ; preds = %117
  %121 = load ptr, ptr %6, align 8, !tbaa !4
  %122 = load ptr, ptr %4, align 8, !tbaa !9
  store ptr %121, ptr %122, align 8, !tbaa !4
  br label %123

123:                                              ; preds = %120, %117
  %124 = load double, ptr %5, align 8, !tbaa !13
  call void @llvm.lifetime.end.p0(i64 8, ptr %6) #12
  call void @llvm.lifetime.end.p0(i64 8, ptr %5) #12
  ret double %124
}