; Function Attrs: mustprogress nofree norecurse nounwind willreturn uwtable
define double @av_strtod(ptr noundef %0, ptr noundef writeonly captures(address_is_null) %1) local_unnamed_addr #0 {
  %3 = alloca ptr, align 8
  call void @llvm.lifetime.start.p0(i64 8, ptr nonnull %3) #14
  %4 = load i8, ptr %0, align 1, !tbaa !4
  %5 = icmp eq i8 %4, 48
  br i1 %5, label %6, label %14

6:                                                ; preds = %2
  %7 = getelementptr inbounds nuw i8, ptr %0, i64 1
  %8 = load i8, ptr %7, align 1, !tbaa !4
  %9 = and i8 %8, -33
  %10 = icmp eq i8 %9, 88
  br i1 %10, label %11, label %14

11:                                               ; preds = %6
  %12 = call i64 @strtoul(ptr noundef nonnull %0, ptr noundef nonnull %3, i32 noundef 16) #14
  %13 = uitofp i64 %12 to double
  br label %16

14:                                               ; preds = %6, %2
  %15 = call nsz double @strtod(ptr noundef nonnull %0, ptr noundef nonnull %3) #14
  br label %16

16:                                               ; preds = %14, %11
  %.0 = phi nsz double [ %13, %11 ], [ %15, %14 ]
  %17 = load ptr, ptr %3, align 8, !tbaa !7
  %.not = icmp eq ptr %17, %0
  br i1 %.not, label %56, label %18

18:                                               ; preds = %16
  %19 = load i8, ptr %17, align 1, !tbaa !4
  %20 = icmp eq i8 %19, 100
  br i1 %20, label %21, label %30

21:                                               ; preds = %18
  %22 = getelementptr inbounds nuw i8, ptr %17, i64 1
  %23 = load i8, ptr %22, align 1, !tbaa !4
  %24 = icmp eq i8 %23, 66
  br i1 %24, label %25, label %.thread

25:                                               ; preds = %21
  %26 = fdiv nsz double %.0, 2.000000e+01
  %27 = fmul nsz double %26, 0x400A934F0979A371
  %28 = tail call nsz double @llvm.exp2.f64(double %27)
  %29 = getelementptr inbounds nuw i8, ptr %17, i64 2
  br label %thread-pre-split

30:                                               ; preds = %18
  %31 = add i8 %19, -69
  %or.cond = icmp ult i8 %31, 54
  br i1 %or.cond, label %.thread, label %49

.thread:                                          ; preds = %21, %30
  %32 = phi i8 [ %31, %30 ], [ 31, %21 ]
  %33 = zext nneg i8 %32 to i64
  %34 = getelementptr inbounds nuw [54 x %struct.anon], ptr @si_prefixes, i64 0, i64 %33
  %35 = getelementptr inbounds nuw i8, ptr %34, i64 16
  %36 = load i8, ptr %35, align 8, !tbaa !10
  %.not15 = icmp eq i8 %36, 0
  br i1 %.not15, label %thread-pre-split, label %37

37:                                               ; preds = %.thread
  %38 = getelementptr inbounds nuw i8, ptr %17, i64 1
  %39 = load i8, ptr %38, align 1, !tbaa !4
  %40 = icmp eq i8 %39, 105
  br i1 %40, label %41, label %45

41:                                               ; preds = %37
  %42 = load double, ptr %34, align 8, !tbaa !13
  %43 = fmul nsz double %.0, %42
  %44 = getelementptr inbounds nuw i8, ptr %17, i64 2
  br label %thread-pre-split

45:                                               ; preds = %37
  %46 = getelementptr inbounds nuw i8, ptr %34, i64 8
  %47 = load double, ptr %46, align 8, !tbaa !14
  %48 = fmul nsz double %.0, %47
  br label %thread-pre-split

thread-pre-split:                                 ; preds = %25, %41, %45, %.thread
  %.ph = phi ptr [ %17, %.thread ], [ %38, %45 ], [ %44, %41 ], [ %29, %25 ]
  %.2.ph = phi double [ %.0, %.thread ], [ %48, %45 ], [ %43, %41 ], [ %28, %25 ]
  %.pr = load i8, ptr %.ph, align 1, !tbaa !4
  br label %49

49:                                               ; preds = %thread-pre-split, %30
  %50 = phi i8 [ %.pr, %thread-pre-split ], [ %19, %30 ]
  %51 = phi ptr [ %.ph, %thread-pre-split ], [ %17, %30 ]
  %.2 = phi nsz double [ %.2.ph, %thread-pre-split ], [ %.0, %30 ]
  %52 = icmp eq i8 %50, 66
  br i1 %52, label %53, label %56

53:                                               ; preds = %49
  %54 = fmul nsz double %.2, 8.000000e+00
  %55 = getelementptr inbounds nuw i8, ptr %51, i64 1
  br label %56

56:                                               ; preds = %49, %53, %16
  %57 = phi ptr [ %55, %53 ], [ %51, %49 ], [ %17, %16 ]
  %.1 = phi nsz double [ %54, %53 ], [ %.2, %49 ], [ %.0, %16 ]
  %.not16 = icmp eq ptr %1, null
  br i1 %.not16, label %59, label %58

58:                                               ; preds = %56
  store ptr %57, ptr %1, align 8, !tbaa !7
  br label %59

59:                                               ; preds = %58, %56
  call void @llvm.lifetime.end.p0(i64 8, ptr nonnull %3) #14
  ret double %.1
}